Certificate:
    Data:
        Version: 3 (0x2)
        Serial Number: 288 (0x120)
    Signature Algorithm: sha1WithRSAEncryption
        Issuer: C=CN, ST=Chongqing, L=Chengdu, O=SmartLink, OU=Svr Dev Group, CN=localhost/emailAddress=localhost@163.com
        Validity
            Not Before: Jan  4 08:31:06 2014 GMT
            Not After : Sep 21 08:31:06 2033 GMT
        Subject: C=CN, ST=Chongqing, O=SmartLink, OU=Svr Dev Group, CN=localhost/emailAddress=localhost@163.com
        Subject Public Key Info:
            Public Key Algorithm: rsaEncryption
                Public-Key: (4096 bit)
                Modulus:
                    00:c8:04:22:3a:4f:b1:fb:42:3a:4f:2f:2d:23:7d:
                    34:07:99:3e:a1:ad:1b:34:13:d4:ad:c1:1b:1b:fb:
                    27:e7:7c:f0:40:2a:d5:8d:9a:d1:83:92:e0:08:06:
                    47:30:34:27:36:79:89:2a:23:21:9b:b7:84:cd:67:
                    ac:d5:91:5b:dd:66:25:1f:aa:79:3f:fb:62:c6:bf:
                    f0:e7:d1:e8:7f:5a:bd:10:8f:75:13:a3:6d:f3:3e:
                    47:15:db:83:c1:74:41:aa:9d:e1:ea:6f:48:ab:a2:
                    23:45:71:3d:f9:29:6a:db:33:d8:32:d3:9d:92:5e:
                    56:a6:8c:27:df:44:fa:63:84:8e:33:dc:03:ef:33:
                    87:95:a3:94:80:25:a4:91:fc:92:cf:ad:fd:eb:03:
                    ca:19:15:8f:0e:33:f5:1e:3f:68:23:21:a7:ff:0f:
                    51:d2:cc:cc:10:05:f8:42:11:ce:df:68:af:06:24:
                    3c:c5:52:3f:e3:5e:16:bd:2e:81:d3:d2:d9:29:2c:
                    e5:cb:69:b4:78:0e:3b:58:f7:7d:4b:1c:d7:d4:e2:
                    b7:7c:49:ff:21:30:1d:bf:65:9c:44:36:14:0b:20:
                    5d:a2:ad:82:57:4f:a8:97:e3:bd:be:7c:3a:fa:af:
                    f4:5a:8c:6d:9a:27:9b:88:82:1f:43:6e:bb:d6:e6:
                    e2:a5:d6:41:53:da:e0:f3:d5:67:67:95:88:47:cb:
                    b3:fb:d5:08:b6:56:60:dc:ed:fa:54:35:6c:c5:0c:
                    67:37:a1:d7:21:bc:2d:dd:b5:2f:28:0c:47:45:0c:
                    82:47:2f:c4:c7:92:4e:60:28:5a:be:fd:62:25:76:
                    1d:76:79:d7:6d:e7:68:d3:67:59:43:33:49:3f:d2:
                    9f:9a:3e:80:66:94:6e:6c:a4:dd:92:88:17:dd:ca:
                    b2:ff:c1:fa:1a:2b:4c:49:1a:a2:e6:7e:6e:10:ec:
                    a7:24:3e:1b:e3:8c:db:5f:49:00:26:80:12:73:5e:
                    1f:fd:34:11:f7:8f:84:cc:9e:37:0a:e4:4f:f8:9f:
                    71:31:e7:a5:86:dc:78:a6:f1:9f:b6:37:d2:f8:26:
                    46:a8:9d:36:39:31:cf:df:cd:fc:61:fc:ee:ab:03:
                    7f:6a:55:76:d1:ea:e5:1b:9f:ba:af:b5:2a:c2:69:
                    32:9e:b4:6f:0d:6e:a7:fe:d3:9e:58:8a:5c:2f:7c:
                    08:15:cf:54:8a:e2:26:1c:92:9d:8a:ab:d3:7b:4d:
                    2f:6b:0e:96:b8:12:14:31:18:b2:40:03:99:2f:d6:
                    01:2f:c1:e2:03:23:2b:66:dc:35:0c:02:42:28:1a:
                    29:f5:19:38:bd:13:fa:cf:d1:27:65:b1:d7:62:51:
                    cf:df:c7
                Exponent: 65537 (0x10001)
        X509v3 extensions:
            X509v3 Basic Constraints: 
                CA:FALSE
            Netscape Comment: 
                OpenSSL Generated Certificate
            X509v3 Subject Key Identifier: 
                A5:D8:7B:65:51:0F:4B:6D:30:D1:E4:D6:C6:D2:AE:57:3F:BB:05:1A
            X509v3 Authority Key Identifier: 
                keyid:64:B9:1F:BC:5A:81:99:45:73:2E:B4:62:87:8B:EA:A2:B0:A4:40:77

    Signature Algorithm: sha1WithRSAEncryption
         91:b6:83:23:10:5a:81:07:08:ec:fa:9c:67:6d:d9:82:39:9a:
         93:a7:ca:f0:37:10:22:f1:18:ac:1d:18:05:0f:84:ae:04:64:
         0d:ab:af:cb:40:dd:ca:6d:83:b6:a2:4a:b9:d0:fa:c6:23:18:
         9a:29:4f:24:2b:83:77:16:36:59:b6:78:d2:ab:91:ff:fa:3e:
         4f:89:7f:ac:e5:7b:55:72:b9:f1:57:09:4a:b7:1e:6e:5c:9d:
         7f:ed:68:df:24:20:80:be:58:ad:59:3a:dd:7e:95:b8:3c:27:
         ff:6f:fa:63:64:64:1c:5d:13:88:10:58:a9:2f:38:d3:1b:e8:
         51:97:1d:12:ca:99:7b:0f:95:ef:11:e1:07:f0:2b:c5:11:3f:
         31:20:55:d8:d4:4e:bf:52:e1:b3:4f:da:27:a6:75:59:8e:5c:
         77:6e:e8:61:ad:7c:2f:ac:06:56:81:68:15:0f:e6:a3:d3:bf:
         e6:48:8c:2d:1a:67:12:f8:06:dd:e9:f4:dd:3b:6d:02:ac:8f:
         5f:bd:d3:3e:fc:1d:a6:21:23:5b:00:9f:a4:2c:ef:0d:d9:da:
         1a:ef:3d:83:6a:7c:74:91:71:b9:58:2f:27:fe:b2:87:39:86:
         c8:3b:42:c0:8f:5e:fc:98:0e:ed:7b:ef:5e:49:20:86:24:43:
         fc:34:3d:26:fc:d1:8e:a0:45:f5:3a:a7:43:e5:74:33:c0:db:
         3b:14:29:c9:3d:fd:1a:00:67:e2:39:ca:4c:90:6e:1c:34:c6:
         f0:f8:b1:f4:a3:59:8f:7d:e1:b7:6f:9a:45:40:47:dc:67:55:
         1b:3f:77:41:87:32:03:34:dd:72:c3:6b:7f:ff:0c:f9:a3:a6:
         ff:d7:dc:38:ad:5b:3e:48:ac:e2:77:81:57:63:a3:65:74:c2:
         9c:ee:fb:f8:ee:29:bf:25:b7:62:dd:ac:f2:e6:17:be:ff:9b:
         e4:e5:58:58:2e:65:b2:41:0c:3d:42:14:e6:44:b3:6e:d3:50:
         22:ba:c7:11:49:ea:f9:62:b0:5a:f1:c4:d3:15:2c:26:10:0a:
         43:00:2d:70:f0:93:f8:53:5e:1b:af:11:c6:e9:01:8b:2d:16:
         3c:3c:6f:36:3d:b2:cb:24:b4:a8:5a:86:2a:68:b1:3a:7a:6a:
         e3:17:e8:21:75:e3:14:60:12:5a:c6:39:8a:64:9f:f7:c6:9f:
         9f:e9:ac:df:bf:56:d4:6a:ad:82:03:c8:de:c0:d4:a2:16:ac:
         15:52:55:e6:65:71:d7:e3:2f:1c:0c:e9:1e:75:1d:d8:f9:61:
         88:00:0a:ca:f8:51:54:1c:f0:4a:88:40:c3:d2:fc:be:78:0c:
         1a:94:e4:1d:6b:29:33:fe
-----BEGIN CERTIFICATE-----
MIIGETCCA/mgAwIBAgICASAwDQYJKoZIhvcNAQEFBQAwgZUxCzAJBgNVBAYTAkNO
MRIwEAYDVQQIDAlDaG9uZ3FpbmcxEDAOBgNVBAcMB0NoZW5nZHUxEjAQBgNVBAoM
CVNtYXJ0TGluazEWMBQGA1UECwwNU3ZyIERldiBHcm91cDESMBAGA1UEAwwJbG9j
YWxob3N0MSAwHgYJKoZIhvcNAQkBFhFsb2NhbGhvc3RAMTYzLmNvbTAeFw0xNDAx
MDQwODMxMDZaFw0zMzA5MjEwODMxMDZaMIGDMQswCQYDVQQGEwJDTjESMBAGA1UE
CAwJQ2hvbmdxaW5nMRIwEAYDVQQKDAlTbWFydExpbmsxFjAUBgNVBAsMDVN2ciBE
ZXYgR3JvdXAxEjAQBgNVBAMMCWxvY2FsaG9zdDEgMB4GCSqGSIb3DQEJARYRbG9j
YWxob3N0QDE2My5jb20wggIiMA0GCSqGSIb3DQEBAQUAA4ICDwAwggIKAoICAQDI
BCI6T7H7QjpPLy0jfTQHmT6hrRs0E9StwRsb+yfnfPBAKtWNmtGDkuAIBkcwNCc2
eYkqIyGbt4TNZ6zVkVvdZiUfqnk/+2LGv/Dn0eh/Wr0Qj3UTo23zPkcV24PBdEGq
neHqb0iroiNFcT35KWrbM9gy052SXlamjCffRPpjhI4z3APvM4eVo5SAJaSR/JLP
rf3rA8oZFY8OM/UeP2gjIaf/D1HSzMwQBfhCEc7faK8GJDzFUj/jXha9LoHT0tkp
LOXLabR4DjtY931LHNfU4rd8Sf8hMB2/ZZxENhQLIF2irYJXT6iX472+fDr6r/Ra
jG2aJ5uIgh9DbrvW5uKl1kFT2uDz1WdnlYhHy7P71Qi2VmDc7fpUNWzFDGc3odch
vC3dtS8oDEdFDIJHL8THkk5gKFq+/WIldh12eddt52jTZ1lDM0k/0p+aPoBmlG5s
pN2SiBfdyrL/wfoaK0xJGqLmfm4Q7KckPhvjjNtfSQAmgBJzXh/9NBH3j4TMnjcK
5E/4n3Ex56WG3Him8Z+2N9L4JkaonTY5Mc/fzfxh/O6rA39qVXbR6uUbn7qvtSrC
aTKetG8Nbqf+055YilwvfAgVz1SK4iYckp2Kq9N7TS9rDpa4EhQxGLJAA5kv1gEv
weIDIytm3DUMAkIoGin1GTi9E/rP0SdlsddiUc/fxwIDAQABo3sweTAJBgNVHRME
AjAAMCwGCWCGSAGG+EIBDQQfFh1PcGVuU1NMIEdlbmVyYXRlZCBDZXJ0aWZpY2F0
ZTAdBgNVHQ4EFgQUpdh7ZVEPS20w0eTWxtKuVz+7BRowHwYDVR0jBBgwFoAUZLkf
vFqBmUVzLrRih4vqorCkQHcwDQYJKoZIhvcNAQEFBQADggIBAJG2gyMQWoEHCOz6
nGdt2YI5mpOnyvA3ECLxGKwdGAUPhK4EZA2rr8tA3cptg7aiSrnQ+sYjGJopTyQr
g3cWNlm2eNKrkf/6Pk+Jf6zle1VyufFXCUq3Hm5cnX/taN8kIIC+WK1ZOt1+lbg8
J/9v+mNkZBxdE4gQWKkvONMb6FGXHRLKmXsPle8R4QfwK8URPzEgVdjUTr9S4bNP
2iemdVmOXHdu6GGtfC+sBlaBaBUP5qPTv+ZIjC0aZxL4Bt3p9N07bQKsj1+90z78
HaYhI1sAn6Qs7w3Z2hrvPYNqfHSRcblYLyf+soc5hsg7QsCPXvyYDu17715JIIYk
Q/w0PSb80Y6gRfU6p0PldDPA2zsUKck9/RoAZ+I5ykyQbhw0xvD4sfSjWY994bdv
mkVAR9xnVRs/d0GHMgM03XLDa3//DPmjpv/X3DitWz5IrOJ3gVdjo2V0wpzu+/ju
Kb8lt2LdrPLmF77/m+TlWFguZbJBDD1CFOZEs27TUCK6xxFJ6vlisFrxxNMVLCYQ
CkMALXDwk/hTXhuvEcbpAYstFjw8bzY9sssktKhahiposTp6auMX6CF14xRgElrG
OYpkn/fGn5/prN+/VtRqrYIDyN7A1KIWrBVSVeZlcdfjLxwM6R51Hdj5YYgACsr4
UVQc8EqIQMPS/L54DBqU5B1rKTP+
-----END CERTIFICATE-----
